; Function Attrs: mustprogress uwtable
define noundef zeroext i1 @_ZNK7Imf_3_218MultiPartInputFile12partCompleteEi(ptr nocapture noundef nonnull readonly align 8 dereferenceable(16) %this, i32 noundef %part) local_unnamed_addr #3 align 2 personality ptr @__gxx_personality_v0 {
entry:
  %_iex_throw_s = alloca %"class.std::__cxx11::basic_stringstream", align 8
  %cmp = icmp slt i32 %part, 0
  br i1 %cmp, label %do.body, label %lor.lhs.false

lor.lhs.false:                                    ; preds = %entry
  %conv = zext nneg i32 %part to i64
  %_data = getelementptr inbounds i8, ptr %this, i64 8
  %0 = load ptr, ptr %_data, align 8
  %_headers = getelementptr inbounds i8, ptr %0, i64 144
  %_M_finish.i = getelementptr inbounds i8, ptr %0, i64 152
  %1 = load ptr, ptr %_M_finish.i, align 8
  %2 = load ptr, ptr %_headers, align 8
  %sub.ptr.lhs.cast.i = ptrtoint ptr %1 to i64
  %sub.ptr.rhs.cast.i = ptrtoint ptr %2 to i64
  %sub.ptr.sub.i = sub i64 %sub.ptr.lhs.cast.i, %sub.ptr.rhs.cast.i
  %sub.ptr.div.i = sdiv exact i64 %sub.ptr.sub.i, 56
  %cmp2.not = icmp ugt i64 %sub.ptr.div.i, %conv
  br i1 %cmp2.not, label %if.end, label %do.body

do.body:                                          ; preds = %entry, %lor.lhs.false
  tail call void @_Z13iex_debugTrapv()
  call void @_ZNSt7__cxx1118basic_stringstreamIcSt11char_traitsIcESaIcEEC1Ev(ptr noundef nonnull align 8 dereferenceable(128) %_iex_throw_s)
  %add.ptr = getelementptr inbounds i8, ptr %_iex_throw_s, i64 16
  %call3 = invoke noundef nonnull align 8 dereferenceable(8) ptr @_ZStlsISt11char_traitsIcEERSt13basic_ostreamIcT_ES5_PKc(ptr noundef nonnull align 8 dereferenceable(8) %add.ptr, ptr noundef nonnull @.str.34)
          to label %invoke.cont unwind label %lpad

invoke.cont:                                      ; preds = %do.body
  %call5 = invoke noundef nonnull align 8 dereferenceable(8) ptr @_ZNSolsEi(ptr noundef nonnull align 8 dereferenceable(8) %call3, i32 noundef %part)
          to label %invoke.cont4 unwind label %lpad

invoke.cont4:                                     ; preds = %invoke.cont
  %call7 = invoke noundef nonnull align 8 dereferenceable(8) ptr @_ZStlsISt11char_traitsIcEERSt13basic_ostreamIcT_ES5_PKc(ptr noundef nonnull align 8 dereferenceable(8) %call5, ptr noundef nonnull @.str.11)
          to label %invoke.cont6 unwind label %lpad

invoke.cont6:                                     ; preds = %invoke.cont4
  %_data8 = getelementptr inbounds i8, ptr %this, i64 8
  %3 = load ptr, ptr %_data8, align 8
  %_headers9 = getelementptr inbounds i8, ptr %3, i64 144
  %_M_finish.i5 = getelementptr inbounds i8, ptr %3, i64 152
  %4 = load ptr, ptr %_M_finish.i5, align 8
  %5 = load ptr, ptr %_headers9, align 8
  %sub.ptr.lhs.cast.i6 = ptrtoint ptr %4 to i64
  %sub.ptr.rhs.cast.i7 = ptrtoint ptr %5 to i64
  %sub.ptr.sub.i8 = sub i64 %sub.ptr.lhs.cast.i6, %sub.ptr.rhs.cast.i7
  %sub.ptr.div.i9 = sdiv exact i64 %sub.ptr.sub.i8, 56
  %call12 = invoke noundef nonnull align 8 dereferenceable(8) ptr @_ZNSolsEm(ptr noundef nonnull align 8 dereferenceable(8) %call7, i64 noundef %sub.ptr.div.i9)
          to label %invoke.cont11 unwind label %lpad

invoke.cont11:                                    ; preds = %invoke.cont6
  %call14 = invoke noundef nonnull align 8 dereferenceable(8) ptr @_ZStlsISt11char_traitsIcEERSt13basic_ostreamIcT_ES5_PKc(ptr noundef nonnull align 8 dereferenceable(8) %call12, ptr noundef nonnull @.str.12)
          to label %invoke.cont13 unwind label %lpad

invoke.cont13:                                    ; preds = %invoke.cont11
  %exception = call ptr @__cxa_allocate_exception(i64 72) #22
  invoke void @_ZN7Iex_3_26ArgExcC1ERNSt7__cxx1118basic_stringstreamIcSt11char_traitsIcESaIcEEE(ptr noundef nonnull align 8 dereferenceable(72) %exception, ptr noundef nonnull align 8 dereferenceable(128) %_iex_throw_s)
          to label %invoke.cont16 unwind label %lpad15

invoke.cont16:                                    ; preds = %invoke.cont13
  invoke void @__cxa_throw(ptr nonnull %exception, ptr nonnull @_ZTIN7Iex_3_26ArgExcE, ptr nonnull @_ZN7Iex_3_26ArgExcD1Ev) #23
          to label %unreachable unwind label %lpad

lpad:                                             ; preds = %invoke.cont16, %invoke.cont11, %invoke.cont6, %invoke.cont4, %invoke.cont, %do.body
  %6 = landingpad { ptr, i32 }
          cleanup
  br label %ehcleanup

lpad15:                                           ; preds = %invoke.cont13
  %7 = landingpad { ptr, i32 }
          cleanup
  call void @__cxa_free_exception(ptr %exception) #22
  br label %ehcleanup

ehcleanup:                                        ; preds = %lpad15, %lpad
  %.pn = phi { ptr, i32 } [ %6, %lpad ], [ %7, %lpad15 ]
  call void @_ZNSt7__cxx1118basic_stringstreamIcSt11char_traitsIcESaIcEED1Ev(ptr noundef nonnull align 8 dereferenceable(128) %_iex_throw_s) #22
  resume { ptr, i32 } %.pn

if.end:                                           ; preds = %lor.lhs.false
  %parts = getelementptr inbounds i8, ptr %0, i64 64
  %8 = load ptr, ptr %parts, align 8
  %add.ptr.i = getelementptr inbounds ptr, ptr %8, i64 %conv
  %9 = load ptr, ptr %add.ptr.i, align 8
  %completed = getelementptr inbounds i8, ptr %9, i64 104
  %10 = load i8, ptr %completed, align 8
  %11 = and i8 %10, 1
  %tobool = icmp ne i8 %11, 0
  ret i1 %tobool

unreachable:                                      ; preds = %invoke.cont16
  unreachable
}